target datalayout = "e-m:e-p270:32:32-p271:32:32-p272:64:64-i64:64-i128:128-f80:128-n8:16:32:64-S128"
target triple = "x86_64-pc-linux-gnu"

%class.anon.9 = type { i8 }

@_ZN4pbrtL9nTriTestsE = internal thread_local global i64 0, align 8
@_ZN4pbrtL8nTriHitsE = internal thread_local global i64 0, align 8
@.str.115 = private unnamed_addr constant [46 x i8] c"Intersections/Ray-Triangle intersection tests\00", align 1
@_ZN4pbrtL11nTriHitsSumE = internal thread_local global i64 0, align 8
@_ZN4pbrtL12nTriTestsSumE = internal thread_local global i64 0, align 8

; Function Attrs: inlinehint mustprogress uwtable
define internal void @"_ZNK4pbrt3$_4clERNS_16StatsAccumulatorE"(ptr noundef nonnull align 1 dereferenceable(1) %0, ptr noundef nonnull align 8 dereferenceable(8) %1) #10 align 2 {
  %3 = alloca ptr, align 8
  %4 = alloca ptr, align 8
  store ptr %0, ptr %3, align 8, !tbaa !13
  store ptr %1, ptr %4, align 8, !tbaa !456
  %5 = load ptr, ptr %4, align 8, !tbaa !456
  %6 = call align 8 ptr @llvm.threadlocal.address.p0(ptr align 8 @_ZN4pbrtL8nTriHitsE)
  %7 = load i64, ptr %6, align 8, !tbaa !146
  %8 = call align 8 ptr @llvm.threadlocal.address.p0(ptr align 8 @_ZN4pbrtL11nTriHitsSumE)
  %9 = load i64, ptr %8, align 8, !tbaa !146
  %10 = add nsw i64 %7, %9
  %11 = call align 8 ptr @llvm.threadlocal.address.p0(ptr align 8 @_ZN4pbrtL9nTriTestsE)
  %12 = load i64, ptr %11, align 8, !tbaa !146
  %13 = call align 8 ptr @llvm.threadlocal.address.p0(ptr align 8 @_ZN4pbrtL12nTriTestsSumE)
  %14 = load i64, ptr %13, align 8, !tbaa !146
  %15 = add nsw i64 %12, %14
  call void @_ZN4pbrt16StatsAccumulator11ReportRatioEPKcll(ptr noundef nonnull align 8 dereferenceable(8) %5, ptr noundef @.str.115, i64 noundef %10, i64 noundef %15)
  %16 = call align 8 ptr @llvm.threadlocal.address.p0(ptr align 8 @_ZN4pbrtL8nTriHitsE)
  store i64 0, ptr %16, align 8, !tbaa !146
  %17 = call align 8 ptr @llvm.threadlocal.address.p0(ptr align 8 @_ZN4pbrtL11nTriHitsSumE)
  store i64 0, ptr %17, align 8, !tbaa !146
  %18 = call align 8 ptr @llvm.threadlocal.address.p0(ptr align 8 @_ZN4pbrtL9nTriTestsE)
  store i64 0, ptr %18, align 8, !tbaa !146
  %19 = call align 8 ptr @llvm.threadlocal.address.p0(ptr align 8 @_ZN4pbrtL12nTriTestsSumE)
  store i64 0, ptr %19, align 8, !tbaa !146
  ret void
}

; Function Attrs: inlinehint mustprogress uwtable
define internal void @"_ZN4pbrt3$_48__invokeERNS_16StatsAccumulatorE"(ptr noundef nonnull align 8 dereferenceable(8) %0) #10 align 2 {
  %2 = alloca ptr, align 8
  %3 = alloca %class.anon.9, align 1
  store ptr %0, ptr %2, align 8, !tbaa !456
  %4 = load ptr, ptr %2, align 8
  call void @"_ZNK4pbrt3$_4clERNS_16StatsAccumulatorE"(ptr noundef nonnull align 1 dereferenceable(1) %3, ptr noundef nonnull align 8 dereferenceable(8) %4)
  ret void
}